target datalayout = "e-m:e-p270:32:32-p271:32:32-p272:64:64-i64:64-i128:128-f80:128-n8:16:32:64-S128"
target triple = "x86_64-pc-linux-gnu"

%"struct.faiss::ScalarQuantizer::SQuantizer" = type { ptr }
%"struct.faiss::(anonymous namespace)::QuantizerFP16" = type { %"struct.faiss::ScalarQuantizer::SQuantizer", i64 }
%"struct.faiss::ScalarQuantizer::SQDistanceComputer" = type { %"struct.faiss::FlatCodesDistanceComputer", ptr }
%"struct.faiss::FlatCodesDistanceComputer" = type { %"struct.faiss::DistanceComputer", ptr, i64 }
%"struct.faiss::DistanceComputer" = type { ptr }
%"struct.faiss::(anonymous namespace)::DCTemplate.13" = type { %"struct.faiss::ScalarQuantizer::SQDistanceComputer", %"struct.faiss::(anonymous namespace)::QuantizerFP16" }
%"struct.faiss::(anonymous namespace)::SimilarityL2" = type <{ ptr, ptr, float, [4 x i8] }>

; Function Attrs: mustprogress nounwind uwtable
define internal noundef i32 @_ZN5faiss12_GLOBAL__N_17intbitsEf(float noundef %0) #1 {
  %2 = alloca float, align 4
  %3 = alloca ptr, align 8
  store float %0, ptr %2, align 4
  store ptr %2, ptr %3, align 8
  %4 = load ptr, ptr %3, align 8
  %5 = load i32, ptr %4, align 4
  ret i32 %5
}

; Function Attrs: mustprogress nounwind uwtable
define internal noundef float @_ZN5faiss12_GLOBAL__N_19floatbitsEj(i32 noundef %0) #1 {
  %2 = alloca i32, align 4
  %3 = alloca ptr, align 8
  store i32 %0, ptr %2, align 4
  store ptr %2, ptr %3, align 8
  %4 = load ptr, ptr %3, align 8
  %5 = load float, ptr %4, align 4
  ret float %5
}

; Function Attrs: mustprogress nounwind uwtable
define linkonce_odr noundef float @_ZN5faiss11decode_fp16Et(i16 noundef zeroext %0) #1 comdat {
  %2 = alloca i16, align 2
  %3 = alloca i32, align 4
  %4 = alloca i32, align 4
  %5 = alloca i32, align 4
  %6 = alloca i32, align 4
  %7 = alloca i32, align 4
  %8 = alloca i32, align 4
  %9 = alloca i32, align 4
  store i16 %0, ptr %2, align 2
  store i32 260046848, ptr %3, align 4
  %10 = load i16, ptr %2, align 2
  %11 = zext i16 %10 to i32
  %12 = and i32 %11, 32767
  %13 = shl i32 %12, 13
  store i32 %13, ptr %4, align 4
  %14 = load i32, ptr %4, align 4
  %15 = and i32 260046848, %14
  store i32 %15, ptr %5, align 4
  %16 = load i32, ptr %4, align 4
  %17 = add nsw i32 %16, 939524096
  store i32 %17, ptr %4, align 4
  %18 = load i32, ptr %4, align 4
  %19 = add nsw i32 %18, 939524096
  store i32 %19, ptr %6, align 4
  %20 = load i32, ptr %4, align 4
  %21 = add i32 %20, 8388608
  %22 = call noundef float @_ZN5faiss12_GLOBAL__N_19floatbitsEj(i32 noundef %21)
  %23 = call noundef float @_ZN5faiss12_GLOBAL__N_19floatbitsEj(i32 noundef 947912704)
  %24 = fsub float %22, %23
  %25 = call noundef i32 @_ZN5faiss12_GLOBAL__N_17intbitsEf(float noundef %24)
  store i32 %25, ptr %7, align 4
  %26 = load i32, ptr %5, align 4
  %27 = icmp eq i32 %26, 0
  br i1 %27, label %28, label %30

28:                                               ; preds = %1
  %29 = load i32, ptr %7, align 4
  br label %32

30:                                               ; preds = %1
  %31 = load i32, ptr %4, align 4
  br label %32

32:                                               ; preds = %30, %28
  %33 = phi i32 [ %29, %28 ], [ %31, %30 ]
  store i32 %33, ptr %8, align 4
  %34 = load i16, ptr %2, align 2
  %35 = zext i16 %34 to i32
  %36 = and i32 %35, 32768
  %37 = shl i32 %36, 16
  store i32 %37, ptr %9, align 4
  %38 = load i32, ptr %5, align 4
  %39 = icmp eq i32 %38, 260046848
  br i1 %39, label %40, label %42

40:                                               ; preds = %32
  %41 = load i32, ptr %6, align 4
  br label %44

42:                                               ; preds = %32
  %43 = load i32, ptr %8, align 4
  br label %44

44:                                               ; preds = %42, %40
  %45 = phi i32 [ %41, %40 ], [ %43, %42 ]
  %46 = load i32, ptr %9, align 4
  %47 = or i32 %45, %46
  %48 = call noundef float @_ZN5faiss12_GLOBAL__N_19floatbitsEj(i32 noundef %47)
  ret float %48
}

; Function Attrs: mustprogress nounwind uwtable
define internal void @_ZN5faiss12_GLOBAL__N_112SimilarityL2ILi1EEC2EPKf(ptr noundef nonnull align 8 dereferenceable(20) %0, ptr noundef %1) unnamed_addr #1 align 2 {
  %3 = alloca ptr, align 8
  %4 = alloca ptr, align 8
  store ptr %0, ptr %3, align 8
  store ptr %1, ptr %4, align 8
  %5 = load ptr, ptr %3, align 8
  %6 = getelementptr inbounds %"struct.faiss::(anonymous namespace)::SimilarityL2", ptr %5, i32 0, i32 0
  %7 = load ptr, ptr %4, align 8
  store ptr %7, ptr %6, align 8
  ret void
}

; Function Attrs: mustprogress uwtable
define internal noundef float @_ZNK5faiss12_GLOBAL__N_110DCTemplateINS0_13QuantizerFP16ILi1EEENS0_12SimilarityL2ILi1EEELi1EE21compute_code_distanceEPKhS8_(ptr noundef nonnull align 8 dereferenceable(48) %0, ptr noundef %1, ptr noundef %2) #0 align 2 {
  %4 = alloca ptr, align 8
  %5 = alloca ptr, align 8
  %6 = alloca i32, align 4
  %7 = alloca ptr, align 8
  %8 = alloca ptr, align 8
  %9 = alloca i32, align 4
  %10 = alloca ptr, align 8
  %11 = alloca ptr, align 8
  %12 = alloca float, align 4
  %13 = alloca float, align 4
  %14 = alloca float, align 4
  %15 = alloca ptr, align 8
  %16 = alloca ptr, align 8
  %17 = alloca ptr, align 8
  %18 = alloca ptr, align 8
  %19 = alloca %"struct.faiss::(anonymous namespace)::SimilarityL2", align 8
  %20 = alloca i64, align 8
  %21 = alloca float, align 4
  %22 = alloca float, align 4
  store ptr %0, ptr %16, align 8
  store ptr %1, ptr %17, align 8
  store ptr %2, ptr %18, align 8
  %23 = load ptr, ptr %16, align 8
  call void @_ZN5faiss12_GLOBAL__N_112SimilarityL2ILi1EEC2EPKf(ptr noundef nonnull align 8 dereferenceable(20) %19, ptr noundef null)
  store ptr %19, ptr %15, align 8
  %24 = load ptr, ptr %15, align 8
  %25 = getelementptr inbounds %"struct.faiss::(anonymous namespace)::SimilarityL2", ptr %24, i32 0, i32 2
  store float 0.000000e+00, ptr %25, align 8
  %26 = load ptr, ptr %24, align 8
  %27 = getelementptr inbounds %"struct.faiss::(anonymous namespace)::SimilarityL2", ptr %24, i32 0, i32 1
  store ptr %26, ptr %27, align 8
  store i64 0, ptr %20, align 8
  br label %28

28:                                               ; preds = %66, %3
  %29 = load i64, ptr %20, align 8
  %30 = getelementptr inbounds %"struct.faiss::(anonymous namespace)::DCTemplate.13", ptr %23, i32 0, i32 1
  %31 = getelementptr inbounds %"struct.faiss::(anonymous namespace)::QuantizerFP16", ptr %30, i32 0, i32 1
  %32 = load i64, ptr %31, align 8
  %33 = icmp ult i64 %29, %32
  br i1 %33, label %34, label %69

34:                                               ; preds = %28
  %35 = getelementptr inbounds %"struct.faiss::(anonymous namespace)::DCTemplate.13", ptr %23, i32 0, i32 1
  %36 = load ptr, ptr %17, align 8
  %37 = load i64, ptr %20, align 8
  %38 = trunc i64 %37 to i32
  store ptr %35, ptr %4, align 8
  store ptr %36, ptr %5, align 8
  store i32 %38, ptr %6, align 4
  %39 = load ptr, ptr %5, align 8
  %40 = load i32, ptr %6, align 4
  %41 = sext i32 %40 to i64
  %42 = getelementptr inbounds i16, ptr %39, i64 %41
  %43 = load i16, ptr %42, align 2
  %44 = call noundef float @_ZN5faiss11decode_fp16Et(i16 noundef zeroext %43)
  store float %44, ptr %21, align 4
  %45 = getelementptr inbounds %"struct.faiss::(anonymous namespace)::DCTemplate.13", ptr %23, i32 0, i32 1
  %46 = load ptr, ptr %18, align 8
  %47 = load i64, ptr %20, align 8
  %48 = trunc i64 %47 to i32
  store ptr %45, ptr %7, align 8
  store ptr %46, ptr %8, align 8
  store i32 %48, ptr %9, align 4
  %49 = load ptr, ptr %8, align 8
  %50 = load i32, ptr %9, align 4
  %51 = sext i32 %50 to i64
  %52 = getelementptr inbounds i16, ptr %49, i64 %51
  %53 = load i16, ptr %52, align 2
  %54 = call noundef float @_ZN5faiss11decode_fp16Et(i16 noundef zeroext %53)
  store float %54, ptr %22, align 4
  %55 = load float, ptr %21, align 4
  %56 = load float, ptr %22, align 4
  store ptr %19, ptr %11, align 8
  store float %55, ptr %12, align 4
  store float %56, ptr %13, align 4
  %57 = load ptr, ptr %11, align 8
  %58 = load float, ptr %12, align 4
  %59 = load float, ptr %13, align 4
  %60 = fsub float %58, %59
  store float %60, ptr %14, align 4
  %61 = load float, ptr %14, align 4
  %62 = load float, ptr %14, align 4
  %63 = getelementptr inbounds %"struct.faiss::(anonymous namespace)::SimilarityL2", ptr %57, i32 0, i32 2
  %64 = load float, ptr %63, align 8
  %65 = call float @llvm.fmuladd.f32(float %61, float %62, float %64)
  store float %65, ptr %63, align 8
  br label %66

66:                                               ; preds = %34
  %67 = load i64, ptr %20, align 8
  %68 = add i64 %67, 1
  store i64 %68, ptr %20, align 8
  br label %28, !llvm.loop !55

69:                                               ; preds = %28
  store ptr %19, ptr %10, align 8
  %70 = load ptr, ptr %10, align 8
  %71 = getelementptr inbounds %"struct.faiss::(anonymous namespace)::SimilarityL2", ptr %70, i32 0, i32 2
  %72 = load float, ptr %71, align 8
  ret float %72
}

; Function Attrs: mustprogress uwtable
define internal noundef float @_ZN5faiss12_GLOBAL__N_110DCTemplateINS0_13QuantizerFP16ILi1EEENS0_12SimilarityL2ILi1EEELi1EE13symmetric_disEll(ptr noundef nonnull align 8 dereferenceable(48) %0, i64 noundef %1, i64 noundef %2) unnamed_addr #0 align 2 {
  %4 = alloca ptr, align 8
  %5 = alloca i64, align 8
  %6 = alloca i64, align 8
  store ptr %0, ptr %4, align 8
  store i64 %1, ptr %5, align 8
  store i64 %2, ptr %6, align 8
  %7 = load ptr, ptr %4, align 8
  %8 = getelementptr inbounds %"struct.faiss::FlatCodesDistanceComputer", ptr %7, i32 0, i32 1
  %9 = load ptr, ptr %8, align 8
  %10 = load i64, ptr %5, align 8
  %11 = getelementptr inbounds %"struct.faiss::FlatCodesDistanceComputer", ptr %7, i32 0, i32 2
  %12 = load i64, ptr %11, align 8
  %13 = mul i64 %10, %12
  %14 = getelementptr inbounds i8, ptr %9, i64 %13
  %15 = getelementptr inbounds %"struct.faiss::FlatCodesDistanceComputer", ptr %7, i32 0, i32 1
  %16 = load ptr, ptr %15, align 8
  %17 = load i64, ptr %6, align 8
  %18 = getelementptr inbounds %"struct.faiss::FlatCodesDistanceComputer", ptr %7, i32 0, i32 2
  %19 = load i64, ptr %18, align 8
  %20 = mul i64 %17, %19
  %21 = getelementptr inbounds i8, ptr %16, i64 %20
  %22 = call noundef float @_ZNK5faiss12_GLOBAL__N_110DCTemplateINS0_13QuantizerFP16ILi1EEENS0_12SimilarityL2ILi1EEELi1EE21compute_code_distanceEPKhS8_(ptr noundef nonnull align 8 dereferenceable(48) %7, ptr noundef %14, ptr noundef %21)
  ret float %22
}