; Function Attrs: mustprogress nofree norecurse nosync nounwind willreturn memory(read, inaccessiblemem: none) uwtable
define internal noundef float @_ZN5faiss12_GLOBAL__N_110DCTemplateINS0_13QuantizerFP16ILi1EEENS0_12SimilarityL2ILi1EEELi1EE13symmetric_disEll(ptr nocapture noundef nonnull readonly align 8 dereferenceable(48) %0, i64 noundef %1, i64 noundef %2) unnamed_addr #20 align 2 {
  %4 = getelementptr inbounds i8, ptr %0, i64 8
  %5 = load ptr, ptr %4, align 8
  %6 = getelementptr inbounds i8, ptr %0, i64 16
  %7 = load i64, ptr %6, align 8
  %8 = mul i64 %7, %1
  %9 = getelementptr inbounds i8, ptr %5, i64 %8
  %10 = mul i64 %7, %2
  %11 = getelementptr inbounds i8, ptr %5, i64 %10
  %12 = getelementptr inbounds i8, ptr %0, i64 40
  %.val = load i64, ptr %12, align 8
  %.not.i = icmp eq i64 %.val, 0
  br i1 %.not.i, label %_ZNK5faiss12_GLOBAL__N_110DCTemplateINS0_13QuantizerFP16ILi1EEENS0_12SimilarityL2ILi1EEELi1EE21compute_code_distanceEPKhS8_.exit, label %.lr.ph.i

.lr.ph.i:                                         ; preds = %3, %.lr.ph.i
  %.03.i = phi i64 [ %41, %.lr.ph.i ], [ 0, %3 ]
  %.sroa.3.02.i = phi float [ %40, %.lr.ph.i ], [ 0.000000e+00, %3 ]
  %sext.i = shl i64 %.03.i, 32
  %13 = ashr exact i64 %sext.i, 32
  %14 = getelementptr inbounds i16, ptr %9, i64 %13
  %15 = load i16, ptr %14, align 2
  %16 = getelementptr inbounds i16, ptr %11, i64 %13
  %17 = load i16, ptr %16, align 2
  %18 = insertelement <2 x i16> poison, i16 %15, i64 0
  %19 = insertelement <2 x i16> %18, i16 %17, i64 1
  %20 = zext <2 x i16> %19 to <2 x i32>
  %21 = shl nuw nsw <2 x i32> %20, <i32 13, i32 13>
  %22 = and <2 x i32> %21, <i32 268427264, i32 268427264>
  %23 = and <2 x i32> %21, <i32 260046848, i32 260046848>
  %24 = add nuw nsw <2 x i32> %22, <i32 939524096, i32 939524096>
  %25 = or <2 x i32> %21, <i32 1879048192, i32 1879048192>
  %26 = add nuw nsw <2 x i32> %22, <i32 947912704, i32 947912704>
  %27 = bitcast <2 x i32> %26 to <2 x float>
  %28 = fadd <2 x float> %27, <float 0xBF10000000000000, float 0xBF10000000000000>
  %29 = bitcast <2 x float> %28 to <2 x i32>
  %30 = icmp eq <2 x i32> %23, zeroinitializer
  %31 = select <2 x i1> %30, <2 x i32> %29, <2 x i32> %24
  %32 = sext <2 x i16> %19 to <2 x i32>
  %33 = and <2 x i32> %32, <i32 -2147483648, i32 -2147483648>
  %34 = icmp eq <2 x i32> %23, <i32 260046848, i32 260046848>
  %35 = select <2 x i1> %34, <2 x i32> %25, <2 x i32> %31
  %36 = or <2 x i32> %35, %33
  %37 = bitcast <2 x i32> %36 to <2 x float>
  %shift = shufflevector <2 x float> %37, <2 x float> poison, <2 x i32> <i32 1, i32 poison>
  %38 = fsub <2 x float> %37, %shift
  %39 = extractelement <2 x float> %38, i64 0
  %40 = tail call float @llvm.fmuladd.f32(float %39, float %39, float %.sroa.3.02.i)
  %41 = add nuw i64 %.03.i, 1
  %exitcond.not.i = icmp eq i64 %41, %.val
  br i1 %exitcond.not.i, label %_ZNK5faiss12_GLOBAL__N_110DCTemplateINS0_13QuantizerFP16ILi1EEENS0_12SimilarityL2ILi1EEELi1EE21compute_code_distanceEPKhS8_.exit, label %.lr.ph.i, !llvm.loop !54

_ZNK5faiss12_GLOBAL__N_110DCTemplateINS0_13QuantizerFP16ILi1EEENS0_12SimilarityL2ILi1EEELi1EE21compute_code_distanceEPKhS8_.exit: ; preds = %.lr.ph.i, %3
  %.sroa.3.0.lcssa.i = phi float [ 0.000000e+00, %3 ], [ %40, %.lr.ph.i ]
  ret float %.sroa.3.0.lcssa.i
}